target datalayout = "e-m:e-p270:32:32-p271:32:32-p272:64:64-i64:64-i128:128-f80:128-n8:16:32:64-S128"
target triple = "x86_64-pc-linux-gnu"

%struct.pg_conn = type { ptr, ptr, ptr, ptr, ptr, ptr, ptr, ptr, ptr, ptr, ptr, ptr, ptr, ptr, ptr, ptr, ptr, ptr, ptr, ptr, ptr, ptr, ptr, ptr, ptr, ptr, ptr, ptr, ptr, ptr, ptr, ptr, ptr, ptr, ptr, ptr, ptr, ptr, ptr, ptr, ptr, ptr, ptr, i8, ptr, i32, %struct.PGNoticeHooks, ptr, i32, i32, i32, i32, i32, [6 x i8], i8, i8, i32, i8, i8, i32, i8, i32, ptr, ptr, i32, i32, ptr, ptr, ptr, ptr, ptr, i32, %struct.SockAddr, %struct.SockAddr, i32, i32, i8, i8, i8, i8, i8, i8, ptr, i8, i32, [1 x ptr], i8, i8, ptr, ptr, i32, i32, i32, i8, i8, i32, i32, ptr, i8, i64, ptr, i64, ptr, i32, i32, ptr, i32, i8, i32, i32, i32, i32, ptr, %struct.pg_prng_state, ptr, i32, i32, i32, i32, ptr, i32, i32, i32, i32, ptr, i32, ptr, i8, ptr, ptr, ptr, i32, i8, i8, i8, i8, i8, i8, i8, i8, %struct.PQExpBufferData, i32, %struct.PQExpBufferData }
%struct.PGNoticeHooks = type { ptr, ptr, ptr, ptr }
%struct.SockAddr = type { %struct.sockaddr_storage, i32 }
%struct.sockaddr_storage = type { i16, [118 x i8], i64 }
%struct.pg_prng_state = type { i64, i64 }
%struct.PQExpBufferData = type { ptr, i64, i64 }

@.str.34 = private unnamed_addr constant [67 x i8] c"lost synchronization with server: got message type \22%c\22, length %d\00", align 1

; Function Attrs: nounwind uwtable
define internal i32 @getParameterStatus(ptr noundef %0) #0 {
  %2 = alloca i32, align 4
  %3 = alloca ptr, align 8
  %4 = alloca %struct.PQExpBufferData, align 8
  %5 = alloca i32, align 4
  store ptr %0, ptr %3, align 8
  call void @llvm.lifetime.start.p0(i64 24, ptr %4) #11
  %6 = load ptr, ptr %3, align 8
  %7 = getelementptr inbounds nuw %struct.pg_conn, ptr %6, i32 0, i32 142
  %8 = load ptr, ptr %3, align 8
  %9 = call i32 @pqGets(ptr noundef %7, ptr noundef %8)
  %10 = icmp ne i32 %9, 0
  br i1 %10, label %11, label %12

11:                                               ; preds = %1
  store i32 -1, ptr %2, align 4
  store i32 1, ptr %5, align 4
  br label %25

12:                                               ; preds = %1
  call void @initPQExpBuffer(ptr noundef %4)
  %13 = load ptr, ptr %3, align 8
  %14 = call i32 @pqGets(ptr noundef %4, ptr noundef %13)
  %15 = icmp ne i32 %14, 0
  br i1 %15, label %16, label %17

16:                                               ; preds = %12
  call void @termPQExpBuffer(ptr noundef %4)
  store i32 -1, ptr %2, align 4
  store i32 1, ptr %5, align 4
  br label %25

17:                                               ; preds = %12
  %18 = load ptr, ptr %3, align 8
  %19 = load ptr, ptr %3, align 8
  %20 = getelementptr inbounds nuw %struct.pg_conn, ptr %19, i32 0, i32 142
  %21 = getelementptr inbounds nuw %struct.PQExpBufferData, ptr %20, i32 0, i32 0
  %22 = load ptr, ptr %21, align 8
  %23 = getelementptr inbounds nuw %struct.PQExpBufferData, ptr %4, i32 0, i32 0
  %24 = load ptr, ptr %23, align 8
  call void @pqSaveParameterStatus(ptr noundef %18, ptr noundef %22, ptr noundef %24)
  call void @termPQExpBuffer(ptr noundef %4)
  store i32 0, ptr %2, align 4
  store i32 1, ptr %5, align 4
  br label %25

25:                                               ; preds = %17, %16, %11
  call void @llvm.lifetime.end.p0(i64 24, ptr %4) #11
  %26 = load i32, ptr %2, align 4
  ret i32 %26
}

; Function Attrs: nounwind uwtable
define internal void @handleSyncLoss(ptr noundef %0, i8 noundef signext %1, i32 noundef %2) #0 {
  %4 = alloca ptr, align 8
  %5 = alloca i8, align 1
  %6 = alloca i32, align 4
  store ptr %0, ptr %4, align 8
  store i8 %1, ptr %5, align 1
  store i32 %2, ptr %6, align 4
  %7 = load ptr, ptr %4, align 8
  %8 = load i8, ptr %5, align 1
  %9 = sext i8 %8 to i32
  %10 = load i32, ptr %6, align 4
  call void (ptr, ptr, ...) @libpq_append_conn_error(ptr noundef %7, ptr noundef @.str.34, i32 noundef %9, i32 noundef %10)
  %11 = load ptr, ptr %4, align 8
  call void @pqSaveErrorResult(ptr noundef %11)
  %12 = load ptr, ptr %4, align 8
  %13 = getelementptr inbounds nuw %struct.pg_conn, ptr %12, i32 0, i32 51
  store i32 2, ptr %13, align 4
  %14 = load ptr, ptr %4, align 8
  call void @pqDropConnection(ptr noundef %14, i1 noundef zeroext true)
  %15 = load ptr, ptr %4, align 8
  %16 = getelementptr inbounds nuw %struct.pg_conn, ptr %15, i32 0, i32 50
  store i32 1, ptr %16, align 8
  ret void
}

; Function Attrs: nounwind uwtable
define internal i32 @getCopyDataMessage(ptr noundef %0) #0 {
  %2 = alloca i32, align 4
  %3 = alloca ptr, align 8
  %4 = alloca i8, align 1
  %5 = alloca i32, align 4
  %6 = alloca i32, align 4
  %7 = alloca i32, align 4
  store ptr %0, ptr %3, align 8
  call void @llvm.lifetime.start.p0(i64 1, ptr %4) #11
  call void @llvm.lifetime.start.p0(i64 4, ptr %5) #11
  call void @llvm.lifetime.start.p0(i64 4, ptr %6) #11
  br label %8

8:                                                ; preds = %97, %1
  %9 = load ptr, ptr %3, align 8
  %10 = getelementptr inbounds nuw %struct.pg_conn, ptr %9, i32 0, i32 116
  %11 = load i32, ptr %10, align 4
  %12 = load ptr, ptr %3, align 8
  %13 = getelementptr inbounds nuw %struct.pg_conn, ptr %12, i32 0, i32 117
  store i32 %11, ptr %13, align 8
  %14 = load ptr, ptr %3, align 8
  %15 = call i32 @pqGetc(ptr noundef %4, ptr noundef %14)
  %16 = icmp ne i32 %15, 0
  br i1 %16, label %17, label %18

17:                                               ; preds = %8
  store i32 0, ptr %2, align 4
  store i32 1, ptr %7, align 4
  br label %102

18:                                               ; preds = %8
  %19 = load ptr, ptr %3, align 8
  %20 = call i32 @pqGetInt(ptr noundef %5, i64 noundef 4, ptr noundef %19)
  %21 = icmp ne i32 %20, 0
  br i1 %21, label %22, label %23

22:                                               ; preds = %18
  store i32 0, ptr %2, align 4
  store i32 1, ptr %7, align 4
  br label %102

23:                                               ; preds = %18
  %24 = load i32, ptr %5, align 4
  %25 = icmp slt i32 %24, 4
  br i1 %25, label %26, label %30

26:                                               ; preds = %23
  %27 = load ptr, ptr %3, align 8
  %28 = load i8, ptr %4, align 1
  %29 = load i32, ptr %5, align 4
  call void @handleSyncLoss(ptr noundef %27, i8 noundef signext %28, i32 noundef %29)
  store i32 -2, ptr %2, align 4
  store i32 1, ptr %7, align 4
  br label %102

30:                                               ; preds = %23
  %31 = load ptr, ptr %3, align 8
  %32 = getelementptr inbounds nuw %struct.pg_conn, ptr %31, i32 0, i32 118
  %33 = load i32, ptr %32, align 4
  %34 = load ptr, ptr %3, align 8
  %35 = getelementptr inbounds nuw %struct.pg_conn, ptr %34, i32 0, i32 117
  %36 = load i32, ptr %35, align 8
  %37 = sub i32 %33, %36
  store i32 %37, ptr %6, align 4
  %38 = load i32, ptr %6, align 4
  %39 = load i32, ptr %5, align 4
  %40 = sub i32 %39, 4
  %41 = icmp slt i32 %38, %40
  br i1 %41, label %42, label %59

42:                                               ; preds = %30
  %43 = load ptr, ptr %3, align 8
  %44 = getelementptr inbounds nuw %struct.pg_conn, ptr %43, i32 0, i32 117
  %45 = load i32, ptr %44, align 8
  %46 = sext i32 %45 to i64
  %47 = load i32, ptr %5, align 4
  %48 = sext i32 %47 to i64
  %49 = add i64 %46, %48
  %50 = sub i64 %49, 4
  %51 = load ptr, ptr %3, align 8
  %52 = call i32 @pqCheckInBufferSpace(i64 noundef %50, ptr noundef %51)
  %53 = icmp ne i32 %52, 0
  br i1 %53, label %54, label %58

54:                                               ; preds = %42
  %55 = load ptr, ptr %3, align 8
  %56 = load i8, ptr %4, align 1
  %57 = load i32, ptr %5, align 4
  call void @handleSyncLoss(ptr noundef %55, i8 noundef signext %56, i32 noundef %57)
  store i32 -2, ptr %2, align 4
  store i32 1, ptr %7, align 4
  br label %102

58:                                               ; preds = %42
  store i32 0, ptr %2, align 4
  store i32 1, ptr %7, align 4
  br label %102

59:                                               ; preds = %30
  %60 = load i8, ptr %4, align 1
  %61 = sext i8 %60 to i32
  switch i32 %61, label %94 [
    i32 65, label %62
    i32 78, label %68
    i32 83, label %74
    i32 100, label %80
    i32 99, label %82
  ]

62:                                               ; preds = %59
  %63 = load ptr, ptr %3, align 8
  %64 = call i32 @getNotify(ptr noundef %63)
  %65 = icmp ne i32 %64, 0
  br i1 %65, label %66, label %67

66:                                               ; preds = %62
  store i32 0, ptr %2, align 4
  store i32 1, ptr %7, align 4
  br label %102

67:                                               ; preds = %62
  br label %97

68:                                               ; preds = %59
  %69 = load ptr, ptr %3, align 8
  %70 = call i32 @pqGetErrorNotice3(ptr noundef %69, i1 noundef zeroext false)
  %71 = icmp ne i32 %70, 0
  br i1 %71, label %72, label %73

72:                                               ; preds = %68
  store i32 0, ptr %2, align 4
  store i32 1, ptr %7, align 4
  br label %102

73:                                               ; preds = %68
  br label %97

74:                                               ; preds = %59
  %75 = load ptr, ptr %3, align 8
  %76 = call i32 @getParameterStatus(ptr noundef %75)
  %77 = icmp ne i32 %76, 0
  br i1 %77, label %78, label %79

78:                                               ; preds = %74
  store i32 0, ptr %2, align 4
  store i32 1, ptr %7, align 4
  br label %102

79:                                               ; preds = %74
  br label %97

80:                                               ; preds = %59
  %81 = load i32, ptr %5, align 4
  store i32 %81, ptr %2, align 4
  store i32 1, ptr %7, align 4
  br label %102

82:                                               ; preds = %59
  %83 = load ptr, ptr %3, align 8
  %84 = getelementptr inbounds nuw %struct.pg_conn, ptr %83, i32 0, i32 51
  %85 = load i32, ptr %84, align 4
  %86 = icmp eq i32 %85, 6
  br i1 %86, label %87, label %90

87:                                               ; preds = %82
  %88 = load ptr, ptr %3, align 8
  %89 = getelementptr inbounds nuw %struct.pg_conn, ptr %88, i32 0, i32 51
  store i32 4, ptr %89, align 4
  br label %93

90:                                               ; preds = %82
  %91 = load ptr, ptr %3, align 8
  %92 = getelementptr inbounds nuw %struct.pg_conn, ptr %91, i32 0, i32 51
  store i32 1, ptr %92, align 4
  br label %93

93:                                               ; preds = %90, %87
  store i32 -1, ptr %2, align 4
  store i32 1, ptr %7, align 4
  br label %102

94:                                               ; preds = %59
  %95 = load ptr, ptr %3, align 8
  %96 = getelementptr inbounds nuw %struct.pg_conn, ptr %95, i32 0, i32 51
  store i32 1, ptr %96, align 4
  store i32 -1, ptr %2, align 4
  store i32 1, ptr %7, align 4
  br label %102

97:                                               ; preds = %79, %73, %67
  %98 = load ptr, ptr %3, align 8
  %99 = load ptr, ptr %3, align 8
  %100 = getelementptr inbounds nuw %struct.pg_conn, ptr %99, i32 0, i32 117
  %101 = load i32, ptr %100, align 8
  call void @pqParseDone(ptr noundef %98, i32 noundef %101)
  br label %8

102:                                              ; preds = %94, %93, %80, %78, %72, %66, %58, %54, %26, %22, %17
  call void @llvm.lifetime.end.p0(i64 4, ptr %6) #11
  call void @llvm.lifetime.end.p0(i64 4, ptr %5) #11
  call void @llvm.lifetime.end.p0(i64 1, ptr %4) #11
  %103 = load i32, ptr %2, align 4
  ret i32 %103
}