; Function Attrs: nounwind uwtable
define internal fastcc range(i32 -2, -2147483648) i32 @getCopyDataMessage(ptr noundef initializes((1016, 1020)) %0) unnamed_addr #0 {
  %2 = alloca %struct.PQExpBufferData, align 8
  %3 = alloca i8, align 1
  %4 = alloca i32, align 4
  call void @llvm.lifetime.start.p0(i64 1, ptr nonnull %3) #16
  call void @llvm.lifetime.start.p0(i64 4, ptr nonnull %4) #16
  %5 = getelementptr inbounds nuw i8, ptr %0, i64 1012
  %6 = getelementptr inbounds nuw i8, ptr %0, i64 1016
  %7 = load i32, ptr %5, align 4
  store i32 %7, ptr %6, align 8
  %8 = call i32 @pqGetc(ptr noundef nonnull %3, ptr noundef %0) #16
  %.not41 = icmp eq i32 %8, 0
  br i1 %.not41, label %.lr.ph, label %.loopexit

.lr.ph:                                           ; preds = %1
  %9 = getelementptr inbounds nuw i8, ptr %0, i64 1020
  %10 = getelementptr inbounds nuw i8, ptr %0, i64 1152
  br label %11

11:                                               ; preds = %.lr.ph, %57
  %12 = call i32 @pqGetInt(ptr noundef nonnull %4, i64 noundef 4, ptr noundef nonnull %0) #16
  %.not21 = icmp eq i32 %12, 0
  br i1 %.not21, label %13, label %.loopexit

13:                                               ; preds = %11
  %14 = load i32, ptr %4, align 4
  %15 = icmp slt i32 %14, 4
  br i1 %15, label %16, label %21

16:                                               ; preds = %13
  %17 = load i8, ptr %3, align 1
  %18 = sext i8 %17 to i32
  call void (ptr, ptr, ...) @libpq_append_conn_error(ptr noundef nonnull %0, ptr noundef nonnull @.str.34, i32 noundef %18, i32 noundef %14) #16
  call void @pqSaveErrorResult(ptr noundef nonnull %0) #16
  %19 = getelementptr inbounds nuw i8, ptr %0, i64 420
  store i32 2, ptr %19, align 4
  call void @pqDropConnection(ptr noundef nonnull %0, i1 noundef zeroext true) #16
  %20 = getelementptr inbounds nuw i8, ptr %0, i64 416
  store i32 1, ptr %20, align 8
  br label %.loopexit

21:                                               ; preds = %13
  %22 = load i32, ptr %9, align 4
  %23 = load i32, ptr %6, align 8
  %24 = sub i32 %22, %23
  %25 = add nsw i32 %14, -4
  %26 = icmp slt i32 %24, %25
  br i1 %26, label %27, label %39

27:                                               ; preds = %21
  %28 = sext i32 %23 to i64
  %29 = zext nneg i32 %14 to i64
  %30 = add nsw i64 %29, -4
  %31 = add nsw i64 %30, %28
  %32 = call i32 @pqCheckInBufferSpace(i64 noundef %31, ptr noundef nonnull %0) #16
  %.not25 = icmp eq i32 %32, 0
  br i1 %.not25, label %.loopexit, label %33

33:                                               ; preds = %27
  %34 = load i8, ptr %3, align 1
  %35 = load i32, ptr %4, align 4
  %36 = sext i8 %34 to i32
  call void (ptr, ptr, ...) @libpq_append_conn_error(ptr noundef nonnull %0, ptr noundef nonnull @.str.34, i32 noundef %36, i32 noundef %35) #16
  call void @pqSaveErrorResult(ptr noundef nonnull %0) #16
  %37 = getelementptr inbounds nuw i8, ptr %0, i64 420
  store i32 2, ptr %37, align 4
  call void @pqDropConnection(ptr noundef nonnull %0, i1 noundef zeroext true) #16
  %38 = getelementptr inbounds nuw i8, ptr %0, i64 416
  store i32 1, ptr %38, align 8
  br label %.loopexit

39:                                               ; preds = %21
  %40 = load i8, ptr %3, align 1
  switch i8 %40, label %55 [
    i8 65, label %41
    i8 78, label %43
    i8 83, label %45
    i8 100, label %.loopexit
    i8 99, label %51
  ]

41:                                               ; preds = %39
  %42 = call fastcc i32 @getNotify(ptr noundef nonnull %0)
  %.not24 = icmp eq i32 %42, 0
  br i1 %.not24, label %57, label %.loopexit

43:                                               ; preds = %39
  %44 = call i32 @pqGetErrorNotice3(ptr noundef nonnull %0, i1 noundef zeroext false)
  %.not23 = icmp eq i32 %44, 0
  br i1 %.not23, label %57, label %.loopexit

45:                                               ; preds = %39
  call void @llvm.lifetime.start.p0(i64 24, ptr nonnull %2) #16
  %46 = call i32 @pqGets(ptr noundef nonnull %10, ptr noundef nonnull %0) #16
  %.not.i = icmp eq i32 %46, 0
  br i1 %.not.i, label %47, label %getParameterStatus.exit.thread

getParameterStatus.exit.thread:                   ; preds = %45
  call void @llvm.lifetime.end.p0(i64 24, ptr nonnull %2) #16
  br label %.loopexit

47:                                               ; preds = %45
  call void @initPQExpBuffer(ptr noundef nonnull %2) #16
  %48 = call i32 @pqGets(ptr noundef nonnull %2, ptr noundef nonnull %0) #16
  %.not5.i = icmp eq i32 %48, 0
  br i1 %.not5.i, label %getParameterStatus.exit.thread28, label %getParameterStatus.exit

getParameterStatus.exit.thread28:                 ; preds = %47
  %49 = load ptr, ptr %10, align 8
  %50 = load ptr, ptr %2, align 8
  call void @pqSaveParameterStatus(ptr noundef nonnull %0, ptr noundef %49, ptr noundef %50) #16
  call void @termPQExpBuffer(ptr noundef nonnull %2) #16
  call void @llvm.lifetime.end.p0(i64 24, ptr nonnull %2) #16
  br label %57

getParameterStatus.exit:                          ; preds = %47
  call void @termPQExpBuffer(ptr noundef nonnull %2) #16
  call void @llvm.lifetime.end.p0(i64 24, ptr nonnull %2) #16
  br label %.loopexit

51:                                               ; preds = %39
  %52 = getelementptr inbounds nuw i8, ptr %0, i64 420
  %53 = load i32, ptr %52, align 4
  %54 = icmp eq i32 %53, 6
  %. = select i1 %54, i32 4, i32 1
  store i32 %., ptr %52, align 4
  br label %.loopexit

55:                                               ; preds = %39
  %56 = getelementptr inbounds nuw i8, ptr %0, i64 420
  store i32 1, ptr %56, align 4
  br label %.loopexit

57:                                               ; preds = %getParameterStatus.exit.thread28, %43, %41
  %58 = load i32, ptr %6, align 8
  call void @pqParseDone(ptr noundef nonnull %0, i32 noundef %58) #16
  %59 = load i32, ptr %5, align 4
  store i32 %59, ptr %6, align 8
  %60 = call i32 @pqGetc(ptr noundef nonnull %3, ptr noundef nonnull %0) #16
  %.not = icmp eq i32 %60, 0
  br i1 %.not, label %11, label %.loopexit

.loopexit:                                        ; preds = %57, %11, %41, %43, %39, %1, %getParameterStatus.exit, %getParameterStatus.exit.thread, %27, %55, %51, %33, %16
  %.0 = phi i32 [ -2, %16 ], [ -2, %33 ], [ -1, %55 ], [ -1, %51 ], [ 0, %27 ], [ 0, %getParameterStatus.exit ], [ 0, %getParameterStatus.exit.thread ], [ 0, %1 ], [ 0, %57 ], [ 0, %11 ], [ 0, %41 ], [ 0, %43 ], [ %14, %39 ]
  call void @llvm.lifetime.end.p0(i64 4, ptr nonnull %4) #16
  call void @llvm.lifetime.end.p0(i64 1, ptr nonnull %3) #16
  ret i32 %.0
}